target datalayout = "e-m:e-p270:32:32-p271:32:32-p272:64:64-i64:64-i128:128-f80:128-n8:16:32:64-S128"
target triple = "x86_64-pc-linux-gnu"

%"class.cvc5::internal::TypeNode" = type { ptr }
%"class.cvc5::internal::expr::NodeValue" = type { i64, i64, ptr, [0 x ptr] }

; Function Attrs: inlinehint mustprogress nounwind uwtable
define linkonce_odr hidden noundef i32 @_ZNK4cvc58internal8TypeNode7getKindEv(ptr noundef nonnull align 8 dereferenceable(8) %0) #5 comdat align 2 {
  %2 = alloca ptr, align 8
  store ptr %0, ptr %2, align 8, !tbaa !9
  %3 = load ptr, ptr %2, align 8
  %4 = getelementptr inbounds nuw %"class.cvc5::internal::TypeNode", ptr %3, i32 0, i32 0
  %5 = load ptr, ptr %4, align 8, !tbaa !11
  %6 = getelementptr inbounds nuw %"class.cvc5::internal::expr::NodeValue", ptr %5, i32 0, i32 1
  %7 = load i64, ptr %6, align 8
  %8 = and i64 %7, 1023
  %9 = trunc i64 %8 to i32
  ret i32 %9
}

; Function Attrs: mustprogress uwtable
define noundef zeroext i1 @_ZNK4cvc58internal8TypeNode10isDatatypeEv(ptr noundef nonnull align 8 dereferenceable(8) %0) #6 align 2 {
  %2 = alloca ptr, align 8
  %3 = alloca i32, align 4
  store ptr %0, ptr %2, align 8, !tbaa !9
  %4 = load ptr, ptr %2, align 8
  call void @llvm.lifetime.start.p0(i64 4, ptr %3) #3
  %5 = call noundef i32 @_ZNK4cvc58internal8TypeNode7getKindEv(ptr noundef nonnull align 8 dereferenceable(8) %4)
  store i32 %5, ptr %3, align 4, !tbaa !31
  %6 = load i32, ptr %3, align 4, !tbaa !31
  %7 = icmp eq i32 %6, 228
  br i1 %7, label %17, label %8

8:                                                ; preds = %1
  %9 = load i32, ptr %3, align 4, !tbaa !31
  %10 = icmp eq i32 %9, 229
  br i1 %10, label %17, label %11

11:                                               ; preds = %8
  %12 = load i32, ptr %3, align 4, !tbaa !31
  %13 = icmp eq i32 %12, 230
  br i1 %13, label %17, label %14

14:                                               ; preds = %11
  %15 = load i32, ptr %3, align 4, !tbaa !31
  %16 = icmp eq i32 %15, 244
  br label %17

17:                                               ; preds = %14, %11, %8, %1
  %18 = phi i1 [ true, %11 ], [ true, %8 ], [ true, %1 ], [ %16, %14 ]
  call void @llvm.lifetime.end.p0(i64 4, ptr %3) #3
  ret i1 %18
}

; Function Attrs: mustprogress uwtable
define noundef zeroext i1 @_ZNK4cvc58internal8TypeNode12isCodatatypeEv(ptr noundef nonnull align 8 dereferenceable(8) %0) #6 align 2 {
  %2 = alloca i1, align 1
  %3 = alloca ptr, align 8
  store ptr %0, ptr %3, align 8, !tbaa !9
  %4 = load ptr, ptr %3, align 8
  %5 = call noundef zeroext i1 @_ZNK4cvc58internal8TypeNode10isDatatypeEv(ptr noundef nonnull align 8 dereferenceable(8) %4)
  br i1 %5, label %6, label %9

6:                                                ; preds = %1
  %7 = call noundef nonnull align 8 dereferenceable(448) ptr @_ZNK4cvc58internal8TypeNode8getDTypeEv(ptr noundef nonnull align 8 dereferenceable(8) %4)
  %8 = call noundef zeroext i1 @_ZNK4cvc58internal5DType12isCodatatypeEv(ptr noundef nonnull align 8 dereferenceable(448) %7)
  store i1 %8, ptr %2, align 1
  br label %10

9:                                                ; preds = %1
  store i1 false, ptr %2, align 1
  br label %10

10:                                               ; preds = %9, %6
  %11 = load i1, ptr %2, align 1
  ret i1 %11
}