; Function Attrs: mustprogress uwtable
define noundef zeroext i1 @_ZNK4cvc58internal8TypeNode12isCodatatypeEv(ptr noundef nonnull readonly align 8 captures(none) dereferenceable(8) %0) local_unnamed_addr #4 align 2 {
  %2 = load ptr, ptr %0, align 8, !tbaa !3
  %3 = getelementptr inbounds nuw i8, ptr %2, i64 8
  %4 = load i64, ptr %3, align 8
  %5 = trunc i64 %4 to i32
  %6 = and i32 %5, 1023
  switch i32 %6, label %_ZNK4cvc58internal8TypeNode10isDatatypeEv.exit [
    i32 230, label %7
    i32 229, label %7
    i32 228, label %7
    i32 244, label %7
  ]

7:                                                ; preds = %1, %1, %1, %1
  %8 = tail call noundef nonnull align 8 dereferenceable(448) ptr @_ZNK4cvc58internal8TypeNode8getDTypeEv(ptr noundef nonnull align 8 dereferenceable(8) %0)
  %9 = tail call noundef zeroext i1 @_ZNK4cvc58internal5DType12isCodatatypeEv(ptr noundef nonnull align 8 dereferenceable(448) %8)
  br label %_ZNK4cvc58internal8TypeNode10isDatatypeEv.exit

_ZNK4cvc58internal8TypeNode10isDatatypeEv.exit:   ; preds = %1, %7
  %.0 = phi i1 [ %9, %7 ], [ false, %1 ]
  ret i1 %.0
}